target datalayout = "e-m:e-p270:32:32-p271:32:32-p272:64:64-i64:64-i128:128-f80:128-n8:16:32:64-S128"
target triple = "x86_64-pc-linux-gnu"

%struct.AVFormatContext = type { ptr, ptr, ptr, ptr, ptr, i32, i32, ptr, i32, ptr, i32, ptr, ptr, i64, i64, i64, i32, i32, i32, i64, i64, ptr, i32, i32, ptr, i32, i32, i32, i32, ptr, i64, i32, i32, %struct.AVIOInterruptCB, i32, i32, i32, i32, i64, i32, i32, i32, i32, i32, i32, i32, i32, i32, i32, i32, i32, i64, i32, i32, i32, i32, i32, ptr, ptr, ptr, ptr, i32, ptr, ptr, ptr, ptr, i32, ptr, ptr, i64, ptr, ptr, ptr, i64 }
%struct.AVIOInterruptCB = type { ptr, ptr }
%struct.RTSPState = type { ptr, ptr, i32, ptr, i32, i64, i32, [512 x i8], i32, i64, i32, i32, i32, [64 x i8], [128 x i8], %struct.HTTPAuthState, [2048 x i8], ptr, i32, ptr, ptr, [1024 x i8], ptr, i64, [4096 x i8], ptr, i32, i32, ptr, i32, i32, ptr, i32, i64, ptr, i32, i32, i32, i32, i32, i32, i32, i32, i32, i32, i64, i32, ptr, [4 x i8], i32, i32, ptr }
%struct.HTTPAuthState = type { i32, [200 x i8], %struct.DigestParams, i32 }
%struct.DigestParams = type { [300 x i8], [10 x i8], [30 x i8], [300 x i8], [10 x i8], i32 }

@.str.91 = private unnamed_addr constant [28 x i8] c"skipping RTP packet len=%d\0A\00", align 1

; Function Attrs: alwaysinline nounwind willreturn memory(none) uwtable
define internal zeroext i16 @av_bswap16(i16 noundef zeroext %0) #8 {
  %2 = alloca i16, align 2
  store i16 %0, ptr %2, align 2, !tbaa !51
  %3 = load i16, ptr %2, align 2, !tbaa !51
  %4 = zext i16 %3 to i32
  %5 = ashr i32 %4, 8
  %6 = load i16, ptr %2, align 2, !tbaa !51
  %7 = zext i16 %6 to i32
  %8 = shl i32 %7, 8
  %9 = or i32 %5, %8
  %10 = trunc i32 %9 to i16
  store i16 %10, ptr %2, align 2, !tbaa !51
  %11 = load i16, ptr %2, align 2, !tbaa !51
  ret i16 %11
}

; Function Attrs: nounwind uwtable
define i32 @ff_rtsp_skip_packet(ptr noundef %0) #0 {
  %2 = alloca i32, align 4
  %3 = alloca ptr, align 8
  %4 = alloca ptr, align 8
  %5 = alloca i32, align 4
  %6 = alloca i32, align 4
  %7 = alloca i32, align 4
  %8 = alloca [4096 x i8], align 16
  %9 = alloca i32, align 4
  store ptr %0, ptr %3, align 8, !tbaa !15
  call void @llvm.lifetime.start.p0(i64 8, ptr %4) #13
  %10 = load ptr, ptr %3, align 8, !tbaa !15
  %11 = getelementptr inbounds nuw %struct.AVFormatContext, ptr %10, i32 0, i32 3
  %12 = load ptr, ptr %11, align 8, !tbaa !33
  store ptr %12, ptr %4, align 8, !tbaa !46
  call void @llvm.lifetime.start.p0(i64 4, ptr %5) #13
  call void @llvm.lifetime.start.p0(i64 4, ptr %6) #13
  call void @llvm.lifetime.start.p0(i64 4, ptr %7) #13
  call void @llvm.lifetime.start.p0(i64 4096, ptr %8) #13
  %13 = load ptr, ptr %4, align 8, !tbaa !46
  %14 = getelementptr inbounds nuw %struct.RTSPState, ptr %13, i32 0, i32 1
  %15 = load ptr, ptr %14, align 8, !tbaa !163
  %16 = getelementptr inbounds [4096 x i8], ptr %8, i64 0, i64 0
  %17 = call i32 @ffurl_read_complete(ptr noundef %15, ptr noundef %16, i32 noundef 3)
  store i32 %17, ptr %5, align 4, !tbaa !12
  %18 = load i32, ptr %5, align 4, !tbaa !12
  %19 = icmp ne i32 %18, 3
  br i1 %19, label %20, label %28

20:                                               ; preds = %1
  %21 = load i32, ptr %5, align 4, !tbaa !12
  %22 = icmp slt i32 %21, 0
  br i1 %22, label %23, label %25

23:                                               ; preds = %20
  %24 = load i32, ptr %5, align 4, !tbaa !12
  br label %26

25:                                               ; preds = %20
  br label %26

26:                                               ; preds = %25, %23
  %27 = phi i32 [ %24, %23 ], [ -5, %25 ]
  store i32 %27, ptr %2, align 4
  store i32 1, ptr %9, align 4
  br label %68

28:                                               ; preds = %1
  %29 = getelementptr inbounds [4096 x i8], ptr %8, i64 0, i64 0
  %30 = getelementptr inbounds i8, ptr %29, i64 1
  %31 = load i16, ptr %30, align 1, !tbaa !14
  %32 = call zeroext i16 @av_bswap16(i16 noundef zeroext %31) #14
  %33 = zext i16 %32 to i32
  store i32 %33, ptr %6, align 4, !tbaa !12
  %34 = load ptr, ptr %3, align 8, !tbaa !15
  %35 = load i32, ptr %6, align 4, !tbaa !12
  call void (ptr, i32, ptr, ...) @av_log(ptr noundef %34, i32 noundef 56, ptr noundef @.str.91, i32 noundef %35)
  br label %36

36:                                               ; preds = %63, %28
  %37 = load i32, ptr %6, align 4, !tbaa !12
  %38 = icmp sgt i32 %37, 0
  br i1 %38, label %39, label %67

39:                                               ; preds = %36
  %40 = load i32, ptr %6, align 4, !tbaa !12
  store i32 %40, ptr %7, align 4, !tbaa !12
  %41 = load i32, ptr %7, align 4, !tbaa !12
  %42 = sext i32 %41 to i64
  %43 = icmp ugt i64 %42, 4096
  br i1 %43, label %44, label %45

44:                                               ; preds = %39
  store i32 4096, ptr %7, align 4, !tbaa !12
  br label %45

45:                                               ; preds = %44, %39
  %46 = load ptr, ptr %4, align 8, !tbaa !46
  %47 = getelementptr inbounds nuw %struct.RTSPState, ptr %46, i32 0, i32 1
  %48 = load ptr, ptr %47, align 8, !tbaa !163
  %49 = getelementptr inbounds [4096 x i8], ptr %8, i64 0, i64 0
  %50 = load i32, ptr %7, align 4, !tbaa !12
  %51 = call i32 @ffurl_read_complete(ptr noundef %48, ptr noundef %49, i32 noundef %50)
  store i32 %51, ptr %5, align 4, !tbaa !12
  %52 = load i32, ptr %5, align 4, !tbaa !12
  %53 = load i32, ptr %7, align 4, !tbaa !12
  %54 = icmp ne i32 %52, %53
  br i1 %54, label %55, label %63

55:                                               ; preds = %45
  %56 = load i32, ptr %5, align 4, !tbaa !12
  %57 = icmp slt i32 %56, 0
  br i1 %57, label %58, label %60

58:                                               ; preds = %55
  %59 = load i32, ptr %5, align 4, !tbaa !12
  br label %61

60:                                               ; preds = %55
  br label %61

61:                                               ; preds = %60, %58
  %62 = phi i32 [ %59, %58 ], [ -5, %60 ]
  store i32 %62, ptr %2, align 4
  store i32 1, ptr %9, align 4
  br label %68

63:                                               ; preds = %45
  %64 = load i32, ptr %7, align 4, !tbaa !12
  %65 = load i32, ptr %6, align 4, !tbaa !12
  %66 = sub nsw i32 %65, %64
  store i32 %66, ptr %6, align 4, !tbaa !12
  br label %36, !llvm.loop !164

67:                                               ; preds = %36
  store i32 0, ptr %2, align 4
  store i32 1, ptr %9, align 4
  br label %68

68:                                               ; preds = %67, %61, %26
  call void @llvm.lifetime.end.p0(i64 4096, ptr %8) #13
  call void @llvm.lifetime.end.p0(i64 4, ptr %7) #13
  call void @llvm.lifetime.end.p0(i64 4, ptr %6) #13
  call void @llvm.lifetime.end.p0(i64 4, ptr %5) #13
  call void @llvm.lifetime.end.p0(i64 8, ptr %4) #13
  %69 = load i32, ptr %2, align 4
  ret i32 %69
}