; Function Attrs: nounwind uwtable
define i32 @ff_rtsp_skip_packet(ptr noundef %0) local_unnamed_addr #2 {
  %2 = alloca [4096 x i8], align 16
  %3 = getelementptr inbounds nuw i8, ptr %0, i64 24
  %4 = load ptr, ptr %3, align 8, !tbaa !20
  call void @llvm.lifetime.start.p0(i64 4096, ptr nonnull %2) #15
  %5 = getelementptr inbounds nuw i8, ptr %4, i64 8
  %6 = load ptr, ptr %5, align 8, !tbaa !176
  %7 = call i32 @ffurl_read_complete(ptr noundef %6, ptr noundef nonnull %2, i32 noundef 3) #15
  %.not = icmp eq i32 %7, 3
  br i1 %.not, label %11, label %8

8:                                                ; preds = %1
  %9 = icmp slt i32 %7, 0
  %10 = select i1 %9, i32 %7, i32 -5
  br label %.loopexit

11:                                               ; preds = %1
  %12 = getelementptr inbounds nuw i8, ptr %2, i64 1
  %13 = load i16, ptr %12, align 1, !tbaa !9
  %14 = call i16 @llvm.bswap.i16(i16 %13)
  %15 = zext i16 %14 to i32
  call void (ptr, i32, ptr, ...) @av_log(ptr noundef nonnull %0, i32 noundef 56, ptr noundef nonnull @.str.91, i32 noundef %15) #15
  %.not23 = icmp eq i16 %13, 0
  br i1 %.not23, label %.loopexit, label %.lr.ph

16:                                               ; preds = %.lr.ph
  %17 = sub nsw i32 %.022, %spec.store.select
  %18 = icmp sgt i32 %17, 0
  br i1 %18, label %.lr.ph, label %.loopexit, !llvm.loop !177

.lr.ph:                                           ; preds = %11, %16
  %.022 = phi i32 [ %17, %16 ], [ %15, %11 ]
  %spec.store.select = call i32 @llvm.umin.i32(i32 %.022, i32 4096)
  %19 = load ptr, ptr %5, align 8, !tbaa !176
  %20 = call i32 @ffurl_read_complete(ptr noundef %19, ptr noundef nonnull %2, i32 noundef %spec.store.select) #15
  %.not21 = icmp eq i32 %20, %spec.store.select
  br i1 %.not21, label %16, label %21

21:                                               ; preds = %.lr.ph
  %22 = icmp slt i32 %20, 0
  %23 = select i1 %22, i32 %20, i32 -5
  br label %.loopexit

.loopexit:                                        ; preds = %16, %11, %21, %8
  %.018 = phi i32 [ %10, %8 ], [ %23, %21 ], [ 0, %11 ], [ 0, %16 ]
  call void @llvm.lifetime.end.p0(i64 4096, ptr nonnull %2) #15
  ret i32 %.018
}